; Function Attrs: mustprogress uwtable
define void @_ZN5draco13ExpertEncoder5ResetERKNS_18EncoderOptionsBaseIiEE(ptr noundef nonnull align 8 dereferenceable(184) %0, ptr noundef nonnull align 8 dereferenceable(144) %1) local_unnamed_addr #3 align 2 {
  %3 = getelementptr inbounds nuw i8, ptr %0, i64 8
  %4 = tail call noundef nonnull align 8 dereferenceable(48) ptr @_ZNSt8_Rb_treeINSt7__cxx1112basic_stringIcSt11char_traitsIcESaIcEEESt4pairIKS5_S5_ESt10_Select1stIS8_ESt4lessIS5_ESaIS8_EEaSERKSE_(ptr noundef nonnull align 8 dereferenceable(144) %3, ptr noundef nonnull align 8 dereferenceable(144) %1)
  %5 = getelementptr inbounds nuw i8, ptr %0, i64 56
  %6 = getelementptr inbounds nuw i8, ptr %1, i64 48
  %7 = tail call noundef nonnull align 8 dereferenceable(48) ptr @_ZNSt8_Rb_treeIiSt4pairIKiN5draco7OptionsEESt10_Select1stIS4_ESt4lessIiESaIS4_EEaSERKSA_(ptr noundef nonnull align 8 dereferenceable(48) %5, ptr noundef nonnull align 8 dereferenceable(48) %6)
  %8 = getelementptr inbounds nuw i8, ptr %0, i64 104
  %9 = getelementptr inbounds nuw i8, ptr %1, i64 96
  %10 = tail call noundef nonnull align 8 dereferenceable(48) ptr @_ZNSt8_Rb_treeINSt7__cxx1112basic_stringIcSt11char_traitsIcESaIcEEESt4pairIKS5_S5_ESt10_Select1stIS8_ESt4lessIS5_ESaIS8_EEaSERKSE_(ptr noundef nonnull align 8 dereferenceable(48) %8, ptr noundef nonnull align 8 dereferenceable(48) %9)
  ret void
}